target datalayout = "e-m:e-p270:32:32-p271:32:32-p272:64:64-i64:64-i128:128-f80:128-n8:16:32:64-S128"
target triple = "x86_64-pc-linux-gnu"

@.str.2 = private unnamed_addr constant [7 x i8] c"TMPDIR\00", align 1
@.str.3 = private unnamed_addr constant [4 x i8] c"TMP\00", align 1
@.str.4 = private unnamed_addr constant [5 x i8] c"TEMP\00", align 1
@.str.5 = private unnamed_addr constant [8 x i8] c"TEMPDIR\00", align 1
@.str.6 = private unnamed_addr constant [5 x i8] c"/tmp\00", align 1

; Function Attrs: nounwind uwtable
define dso_local i32 @uv_os_tmpdir(ptr noundef %0, ptr noundef %1) #0 {
  %3 = alloca i32, align 4
  %4 = alloca ptr, align 8
  %5 = alloca ptr, align 8
  %6 = alloca ptr, align 8
  %7 = alloca i64, align 8
  %8 = alloca i32, align 4
  store ptr %0, ptr %4, align 8
  store ptr %1, ptr %5, align 8
  call void @llvm.lifetime.start.p0(i64 8, ptr %6) #11
  call void @llvm.lifetime.start.p0(i64 8, ptr %7) #11
  %9 = load ptr, ptr %4, align 8
  %10 = icmp eq ptr %9, null
  br i1 %10, label %18, label %11

11:                                               ; preds = %2
  %12 = load ptr, ptr %5, align 8
  %13 = icmp eq ptr %12, null
  br i1 %13, label %18, label %14

14:                                               ; preds = %11
  %15 = load ptr, ptr %5, align 8
  %16 = load i64, ptr %15, align 8
  %17 = icmp eq i64 %16, 0
  br i1 %17, label %18, label %19

18:                                               ; preds = %14, %11, %2
  store i32 -22, ptr %3, align 4
  store i32 1, ptr %8, align 4
  br label %87

19:                                               ; preds = %14
  br label %20

20:                                               ; preds = %19
  %21 = call ptr @getenv(ptr noundef @.str.2) #11
  store ptr %21, ptr %6, align 8
  %22 = load ptr, ptr %6, align 8
  %23 = icmp ne ptr %22, null
  br i1 %23, label %24, label %25

24:                                               ; preds = %20
  br label %52

25:                                               ; preds = %20
  br label %26

26:                                               ; preds = %25
  br label %27

27:                                               ; preds = %26
  br label %28

28:                                               ; preds = %27
  %29 = call ptr @getenv(ptr noundef @.str.3) #11
  store ptr %29, ptr %6, align 8
  %30 = load ptr, ptr %6, align 8
  %31 = icmp ne ptr %30, null
  br i1 %31, label %32, label %33

32:                                               ; preds = %28
  br label %52

33:                                               ; preds = %28
  br label %34

34:                                               ; preds = %33
  br label %35

35:                                               ; preds = %34
  br label %36

36:                                               ; preds = %35
  %37 = call ptr @getenv(ptr noundef @.str.4) #11
  store ptr %37, ptr %6, align 8
  %38 = load ptr, ptr %6, align 8
  %39 = icmp ne ptr %38, null
  br i1 %39, label %40, label %41

40:                                               ; preds = %36
  br label %52

41:                                               ; preds = %36
  br label %42

42:                                               ; preds = %41
  br label %43

43:                                               ; preds = %42
  br label %44

44:                                               ; preds = %43
  %45 = call ptr @getenv(ptr noundef @.str.5) #11
  store ptr %45, ptr %6, align 8
  %46 = load ptr, ptr %6, align 8
  %47 = icmp ne ptr %46, null
  br i1 %47, label %48, label %49

48:                                               ; preds = %44
  br label %52

49:                                               ; preds = %44
  br label %50

50:                                               ; preds = %49
  br label %51

51:                                               ; preds = %50
  store ptr @.str.6, ptr %6, align 8
  br label %52

52:                                               ; preds = %51, %48, %40, %32, %24
  %53 = load ptr, ptr %6, align 8
  %54 = call i64 @strlen(ptr noundef %53) #13
  store i64 %54, ptr %7, align 8
  %55 = load i64, ptr %7, align 8
  %56 = load ptr, ptr %5, align 8
  %57 = load i64, ptr %56, align 8
  %58 = icmp uge i64 %55, %57
  br i1 %58, label %59, label %63

59:                                               ; preds = %52
  %60 = load i64, ptr %7, align 8
  %61 = add i64 %60, 1
  %62 = load ptr, ptr %5, align 8
  store i64 %61, ptr %62, align 8
  store i32 -105, ptr %3, align 4
  store i32 1, ptr %8, align 4
  br label %87

63:                                               ; preds = %52
  %64 = load i64, ptr %7, align 8
  %65 = icmp ugt i64 %64, 1
  br i1 %65, label %66, label %77

66:                                               ; preds = %63
  %67 = load ptr, ptr %6, align 8
  %68 = load i64, ptr %7, align 8
  %69 = sub i64 %68, 1
  %70 = getelementptr inbounds nuw i8, ptr %67, i64 %69
  %71 = load i8, ptr %70, align 1
  %72 = sext i8 %71 to i32
  %73 = icmp eq i32 %72, 47
  br i1 %73, label %74, label %77

74:                                               ; preds = %66
  %75 = load i64, ptr %7, align 8
  %76 = add i64 %75, -1
  store i64 %76, ptr %7, align 8
  br label %77

77:                                               ; preds = %74, %66, %63
  %78 = load ptr, ptr %4, align 8
  %79 = load ptr, ptr %6, align 8
  %80 = load i64, ptr %7, align 8
  %81 = add i64 %80, 1
  call void @llvm.memcpy.p0.p0.i64(ptr align 1 %78, ptr align 1 %79, i64 %81, i1 false)
  %82 = load ptr, ptr %4, align 8
  %83 = load i64, ptr %7, align 8
  %84 = getelementptr inbounds nuw i8, ptr %82, i64 %83
  store i8 0, ptr %84, align 1
  %85 = load i64, ptr %7, align 8
  %86 = load ptr, ptr %5, align 8
  store i64 %85, ptr %86, align 8
  store i32 0, ptr %3, align 4
  store i32 1, ptr %8, align 4
  br label %87

87:                                               ; preds = %77, %59, %18
  call void @llvm.lifetime.end.p0(i64 8, ptr %7) #11
  call void @llvm.lifetime.end.p0(i64 8, ptr %6) #11
  %88 = load i32, ptr %3, align 4
  ret i32 %88
}