; Function Attrs: nofree nounwind memory(readwrite, inaccessiblemem: read) uwtable
define dso_local range(i32 -105, 1) i32 @uv_os_tmpdir(ptr noundef writeonly captures(address_is_null) %0, ptr noundef captures(address_is_null) %1) local_unnamed_addr #17 {
  %3 = icmp eq ptr %0, null
  %4 = icmp eq ptr %1, null
  %or.cond = or i1 %3, %4
  br i1 %or.cond, label %31, label %5

5:                                                ; preds = %2
  %6 = load i64, ptr %1, align 8
  %7 = icmp eq i64 %6, 0
  br i1 %7, label %31, label %8

8:                                                ; preds = %5
  %9 = tail call ptr @getenv(ptr noundef nonnull @.str.2) #23
  %.not = icmp eq ptr %9, null
  br i1 %.not, label %10, label %16

10:                                               ; preds = %8
  %11 = tail call ptr @getenv(ptr noundef nonnull @.str.3) #23
  %.not32 = icmp eq ptr %11, null
  br i1 %.not32, label %12, label %16

12:                                               ; preds = %10
  %13 = tail call ptr @getenv(ptr noundef nonnull @.str.4) #23
  %.not33 = icmp eq ptr %13, null
  br i1 %.not33, label %14, label %16

14:                                               ; preds = %12
  %15 = tail call ptr @getenv(ptr noundef nonnull @.str.5) #23
  %.not34 = icmp eq ptr %15, null
  %spec.store.select = select i1 %.not34, ptr @.str.6, ptr %15
  br label %16

16:                                               ; preds = %14, %12, %10, %8
  %.024 = phi ptr [ %9, %8 ], [ %11, %10 ], [ %13, %12 ], [ %spec.store.select, %14 ]
  %17 = tail call i64 @strlen(ptr noundef nonnull dereferenceable(1) %.024) #25
  %.not35 = icmp ult i64 %17, %6
  br i1 %.not35, label %20, label %18

18:                                               ; preds = %16
  %19 = add i64 %17, 1
  br label %.sink.split

20:                                               ; preds = %16
  %21 = icmp ugt i64 %17, 1
  br i1 %21, label %22, label %28

22:                                               ; preds = %20
  %23 = getelementptr i8, ptr %.024, i64 %17
  %24 = getelementptr i8, ptr %23, i64 -1
  %25 = load i8, ptr %24, align 1
  %26 = icmp eq i8 %25, 47
  %27 = sext i1 %26 to i64
  %spec.select = add i64 %17, %27
  br label %28

28:                                               ; preds = %22, %20
  %.0 = phi i64 [ %17, %20 ], [ %spec.select, %22 ]
  %29 = add nuw i64 %.0, 1
  tail call void @llvm.memcpy.p0.p0.i64(ptr noundef nonnull align 1 dereferenceable(1) %0, ptr noundef nonnull align 1 dereferenceable(1) %.024, i64 %29, i1 false)
  %30 = getelementptr inbounds nuw i8, ptr %0, i64 %.0
  store i8 0, ptr %30, align 1
  br label %.sink.split

.sink.split:                                      ; preds = %18, %28
  %.0.sink = phi i64 [ %.0, %28 ], [ %19, %18 ]
  %.025.ph = phi i32 [ 0, %28 ], [ -105, %18 ]
  store i64 %.0.sink, ptr %1, align 8
  br label %31

31:                                               ; preds = %.sink.split, %2, %5
  %.025 = phi i32 [ -22, %5 ], [ -22, %2 ], [ %.025.ph, %.sink.split ]
  ret i32 %.025
}